target datalayout = "e-m:e-p270:32:32-p271:32:32-p272:64:64-i64:64-i128:128-f80:128-n8:16:32:64-S128"
target triple = "x86_64-pc-linux-gnu"

; Function Attrs: noinline nounwind uwtable
define internal void @interp_pixels(ptr noundef %0, i32 noundef %1, i32 noundef %2, i32 noundef %3) #7 {
  %5 = alloca ptr, align 8
  %6 = alloca i32, align 4
  %7 = alloca i32, align 4
  %8 = alloca i32, align 4
  %9 = alloca i32, align 4
  %10 = alloca i32, align 4
  %11 = alloca ptr, align 8
  %12 = alloca ptr, align 8
  %13 = alloca i32, align 4
  store ptr %0, ptr %5, align 8, !tbaa !43
  store i32 %1, ptr %6, align 4, !tbaa !58
  store i32 %2, ptr %7, align 4, !tbaa !58
  store i32 %3, ptr %8, align 4, !tbaa !58
  call void @llvm.lifetime.start.p0(i64 4, ptr %9) #12
  %14 = load i32, ptr %8, align 4, !tbaa !58
  %15 = sub nsw i32 %14, 2
  store i32 %15, ptr %9, align 4, !tbaa !58
  br label %16

16:                                               ; preds = %96, %4
  %17 = load i32, ptr %9, align 4, !tbaa !58
  %18 = icmp sge i32 %17, 0
  br i1 %18, label %20, label %19

19:                                               ; preds = %16
  store i32 2, ptr %10, align 4
  call void @llvm.lifetime.end.p0(i64 4, ptr %9) #12
  br label %99

20:                                               ; preds = %16
  call void @llvm.lifetime.start.p0(i64 8, ptr %11) #12
  %21 = load ptr, ptr %5, align 8, !tbaa !43
  %22 = load i32, ptr %9, align 4, !tbaa !58
  %23 = ashr i32 %22, 1
  %24 = load i32, ptr %6, align 4, !tbaa !58
  %25 = mul nsw i32 %23, %24
  %26 = sext i32 %25 to i64
  %27 = getelementptr inbounds i8, ptr %21, i64 %26
  store ptr %27, ptr %11, align 8, !tbaa !43
  call void @llvm.lifetime.start.p0(i64 8, ptr %12) #12
  %28 = load ptr, ptr %5, align 8, !tbaa !43
  %29 = load i32, ptr %9, align 4, !tbaa !58
  %30 = load i32, ptr %6, align 4, !tbaa !58
  %31 = mul nsw i32 %29, %30
  %32 = sext i32 %31 to i64
  %33 = getelementptr inbounds i8, ptr %28, i64 %32
  store ptr %33, ptr %12, align 8, !tbaa !43
  %34 = load ptr, ptr %11, align 8, !tbaa !43
  %35 = load i32, ptr %7, align 4, !tbaa !58
  %36 = ashr i32 %35, 1
  %37 = sub nsw i32 %36, 1
  %38 = sext i32 %37 to i64
  %39 = getelementptr inbounds i8, ptr %34, i64 %38
  %40 = load i8, ptr %39, align 1, !tbaa !47
  %41 = load ptr, ptr %12, align 8, !tbaa !43
  %42 = load i32, ptr %7, align 4, !tbaa !58
  %43 = sub nsw i32 %42, 1
  %44 = sext i32 %43 to i64
  %45 = getelementptr inbounds i8, ptr %41, i64 %44
  store i8 %40, ptr %45, align 1, !tbaa !47
  %46 = load ptr, ptr %12, align 8, !tbaa !43
  %47 = load i32, ptr %7, align 4, !tbaa !58
  %48 = sub nsw i32 %47, 2
  %49 = sext i32 %48 to i64
  %50 = getelementptr inbounds i8, ptr %46, i64 %49
  store i8 %40, ptr %50, align 1, !tbaa !47
  call void @llvm.lifetime.start.p0(i64 4, ptr %13) #12
  %51 = load i32, ptr %7, align 4, !tbaa !58
  %52 = sub nsw i32 %51, 4
  store i32 %52, ptr %13, align 4, !tbaa !58
  br label %53

53:                                               ; preds = %92, %20
  %54 = load i32, ptr %13, align 4, !tbaa !58
  %55 = icmp sge i32 %54, 0
  br i1 %55, label %57, label %56

56:                                               ; preds = %53
  store i32 5, ptr %10, align 4
  call void @llvm.lifetime.end.p0(i64 4, ptr %13) #12
  br label %95

57:                                               ; preds = %53
  %58 = load ptr, ptr %11, align 8, !tbaa !43
  %59 = load i32, ptr %13, align 4, !tbaa !58
  %60 = ashr i32 %59, 1
  %61 = sext i32 %60 to i64
  %62 = getelementptr inbounds i8, ptr %58, i64 %61
  %63 = load i8, ptr %62, align 1, !tbaa !47
  %64 = load ptr, ptr %12, align 8, !tbaa !43
  %65 = load i32, ptr %13, align 4, !tbaa !58
  %66 = sext i32 %65 to i64
  %67 = getelementptr inbounds i8, ptr %64, i64 %66
  store i8 %63, ptr %67, align 1, !tbaa !47
  %68 = load ptr, ptr %11, align 8, !tbaa !43
  %69 = load i32, ptr %13, align 4, !tbaa !58
  %70 = ashr i32 %69, 1
  %71 = sext i32 %70 to i64
  %72 = getelementptr inbounds i8, ptr %68, i64 %71
  %73 = load i8, ptr %72, align 1, !tbaa !47
  %74 = zext i8 %73 to i32
  %75 = load ptr, ptr %11, align 8, !tbaa !43
  %76 = load i32, ptr %13, align 4, !tbaa !58
  %77 = ashr i32 %76, 1
  %78 = add nsw i32 %77, 1
  %79 = sext i32 %78 to i64
  %80 = getelementptr inbounds i8, ptr %75, i64 %79
  %81 = load i8, ptr %80, align 1, !tbaa !47
  %82 = zext i8 %81 to i32
  %83 = add nsw i32 %74, %82
  %84 = add nsw i32 %83, 1
  %85 = ashr i32 %84, 1
  %86 = trunc i32 %85 to i8
  %87 = load ptr, ptr %12, align 8, !tbaa !43
  %88 = load i32, ptr %13, align 4, !tbaa !58
  %89 = add nsw i32 %88, 1
  %90 = sext i32 %89 to i64
  %91 = getelementptr inbounds i8, ptr %87, i64 %90
  store i8 %86, ptr %91, align 1, !tbaa !47
  br label %92

92:                                               ; preds = %57
  %93 = load i32, ptr %13, align 4, !tbaa !58
  %94 = sub nsw i32 %93, 2
  store i32 %94, ptr %13, align 4, !tbaa !58
  br label %53, !llvm.loop !82

95:                                               ; preds = %56
  call void @llvm.lifetime.end.p0(i64 8, ptr %12) #12
  call void @llvm.lifetime.end.p0(i64 8, ptr %11) #12
  br label %96

96:                                               ; preds = %95
  %97 = load i32, ptr %9, align 4, !tbaa !58
  %98 = sub nsw i32 %97, 2
  store i32 %98, ptr %9, align 4, !tbaa !58
  br label %16, !llvm.loop !83

99:                                               ; preds = %19
  ret void
}