; Function Attrs: nofree noinline norecurse nosync nounwind memory(argmem: readwrite) uwtable
define internal fastcc void @interp_pixels(ptr noundef captures(none) %0, i32 noundef %1, i32 noundef range(i32 1536, 3073) %2, i32 noundef range(i32 1024, 2049) %3) unnamed_addr #5 {
.lr.ph.us.preheader:
  %4 = lshr i32 %2, 1
  %5 = zext nneg i32 %4 to i64
  %6 = zext nneg i32 %2 to i64
  %7 = add nsw i32 %2, -4
  %8 = zext nneg i32 %7 to i64
  %9 = zext nneg i32 %3 to i64
  %10 = sext i32 %1 to i64
  br label %.lr.ph.us

.lr.ph.us:                                        ; preds = %.lr.ph.us.preheader, %..loopexit_crit_edge.us
  %indvars.iv38 = phi i64 [ %9, %.lr.ph.us.preheader ], [ %indvars.iv.next39, %..loopexit_crit_edge.us ]
  %indvars.iv.next39 = add nsw i64 %indvars.iv38, -2
  %11 = trunc nuw nsw i64 %indvars.iv.next39 to i32
  %12 = lshr i32 %11, 1
  %13 = mul nsw i32 %12, %1
  %14 = sext i32 %13 to i64
  %15 = getelementptr inbounds i8, ptr %0, i64 %14
  %16 = mul nsw i64 %indvars.iv.next39, %10
  %17 = getelementptr inbounds i8, ptr %0, i64 %16
  %18 = getelementptr i8, ptr %15, i64 %5
  %19 = getelementptr i8, ptr %18, i64 -1
  %20 = load i8, ptr %19, align 1, !tbaa !35
  %21 = getelementptr i8, ptr %17, i64 %6
  %22 = getelementptr i8, ptr %21, i64 -1
  store i8 %20, ptr %22, align 1, !tbaa !35
  %23 = getelementptr i8, ptr %21, i64 -2
  store i8 %20, ptr %23, align 1, !tbaa !35
  br label %24

24:                                               ; preds = %.lr.ph.us, %24
  %indvars.iv = phi i64 [ %8, %.lr.ph.us ], [ %indvars.iv.next, %24 ]
  %25 = lshr i64 %indvars.iv, 1
  %26 = and i64 %25, 2147483647
  %27 = getelementptr inbounds nuw i8, ptr %15, i64 %26
  %28 = load i8, ptr %27, align 1, !tbaa !35
  %29 = getelementptr inbounds nuw i8, ptr %17, i64 %indvars.iv
  store i8 %28, ptr %29, align 1, !tbaa !35
  %30 = zext i8 %28 to i16
  %31 = getelementptr inbounds nuw i8, ptr %27, i64 1
  %32 = load i8, ptr %31, align 1, !tbaa !35
  %33 = zext i8 %32 to i16
  %34 = add nuw nsw i16 %30, 1
  %35 = add nuw nsw i16 %34, %33
  %36 = lshr i16 %35, 1
  %37 = trunc nuw i16 %36 to i8
  %38 = getelementptr inbounds nuw i8, ptr %29, i64 1
  store i8 %37, ptr %38, align 1, !tbaa !35
  %indvars.iv.next = add nsw i64 %indvars.iv, -2
  %39 = icmp sgt i64 %indvars.iv, 1
  br i1 %39, label %24, label %..loopexit_crit_edge.us, !llvm.loop !71

..loopexit_crit_edge.us:                          ; preds = %24
  %40 = icmp samesign ugt i64 %indvars.iv38, 3
  br i1 %40, label %.lr.ph.us, label %.split32.us, !llvm.loop !72

.split32.us:                                      ; preds = %..loopexit_crit_edge.us
  ret void
}